; Function Attrs: nofree norecurse nosync nounwind memory(argmem: read) uwtable
define noundef i32 @Kit_PlaGetVarNum(ptr noundef %0) local_unnamed_addr #1 {
  br label %2

2:                                                ; preds = %4, %1
  %.0 = phi ptr [ %0, %1 ], [ %5, %4 ]
  %3 = load i8, ptr %.0, align 1, !tbaa !3
  switch i8 %3, label %4 [
    i8 10, label %6
    i8 0, label %.loopexit
  ]

4:                                                ; preds = %2
  %5 = getelementptr inbounds nuw i8, ptr %.0, i64 1
  br label %2, !llvm.loop !6

6:                                                ; preds = %2
  %7 = ptrtoint ptr %.0 to i64
  %8 = ptrtoint ptr %0 to i64
  %9 = sub i64 %7, %8
  %10 = trunc i64 %9 to i32
  %11 = add i32 %10, -2
  br label %.loopexit

.loopexit:                                        ; preds = %2, %6
  %.06 = phi i32 [ %11, %6 ], [ -1, %2 ]
  ret i32 %.06
}